target datalayout = "e-m:e-p270:32:32-p271:32:32-p272:64:64-i64:64-i128:128-f80:128-n8:16:32:64-S128"
target triple = "x86_64-pc-linux-gnu"

%struct.nstime_t = type { i64, i32 }

@hf_afp_vol_attribute = internal global i32 0, align 4
@hf_afp_vol_name = internal global i32 0, align 4
@hf_afp_vol_id = internal global i32 0, align 4
@hf_afp_vol_signature = internal global i32 0, align 4
@hf_afp_vol_name_offset = internal global i32 0, align 4
@hf_afp_vol_creation_date = internal global i32 0, align 4
@hf_afp_vol_modification_date = internal global i32 0, align 4
@hf_afp_vol_backup_date = internal global i32 0, align 4
@hf_afp_vol_bytes_free = internal global i32 0, align 4
@hf_afp_vol_bytes_total = internal global i32 0, align 4
@hf_afp_vol_ex_bytes_free = internal global i32 0, align 4
@hf_afp_vol_ex_bytes_total = internal global i32 0, align 4
@hf_afp_vol_block_size = internal global i32 0, align 4
@ett_afp_vol_attribute = internal global i32 0, align 4

; Function Attrs: null_pointer_is_valid sspstrong uwtable
define internal void @print_date(ptr noundef %0, i32 noundef %1, ptr noundef %2, i32 noundef %3) #1 {
  %5 = alloca ptr, align 8
  %6 = alloca i32, align 4
  %7 = alloca ptr, align 8
  %8 = alloca i32, align 4
  %9 = alloca i64, align 8
  %10 = alloca %struct.nstime_t, align 8
  store ptr %0, ptr %5, align 8
  store i32 %1, ptr %6, align 4
  store ptr %2, ptr %7, align 8
  store i32 %3, ptr %8, align 4
  call void @llvm.lifetime.start.p0(i64 8, ptr %9) #8
  %11 = load ptr, ptr %7, align 8
  %12 = load i32, ptr %8, align 4
  %13 = call i32 @tvb_get_ntohl(ptr noundef %11, i32 noundef %12)
  %14 = zext i32 %13 to i64
  store i64 %14, ptr %9, align 8
  call void @llvm.lifetime.start.p0(i64 16, ptr %10) #8
  %15 = load i64, ptr %9, align 8
  %16 = add i64 %15, 946684800
  %17 = getelementptr inbounds nuw %struct.nstime_t, ptr %10, i32 0, i32 0
  store i64 %16, ptr %17, align 8
  %18 = getelementptr inbounds nuw %struct.nstime_t, ptr %10, i32 0, i32 1
  store i32 0, ptr %18, align 8
  %19 = load ptr, ptr %5, align 8
  %20 = load i32, ptr %6, align 4
  %21 = load ptr, ptr %7, align 8
  %22 = load i32, ptr %8, align 4
  %23 = call ptr @proto_tree_add_time(ptr noundef %19, i32 noundef %20, ptr noundef %21, i32 noundef %22, i32 noundef 4, ptr noundef %10)
  call void @llvm.lifetime.end.p0(i64 16, ptr %10) #8
  call void @llvm.lifetime.end.p0(i64 8, ptr %9) #8
  ret void
}

; Function Attrs: null_pointer_is_valid sspstrong uwtable
define internal zeroext i16 @decode_vol_attribute(ptr noundef %0, ptr noundef %1, i32 noundef %2) #1 {
  %4 = alloca ptr, align 8
  %5 = alloca ptr, align 8
  %6 = alloca i32, align 4
  %7 = alloca i16, align 2
  store ptr %0, ptr %4, align 8
  store ptr %1, ptr %5, align 8
  store i32 %2, ptr %6, align 4
  call void @llvm.lifetime.start.p0(i64 2, ptr %7) #8
  %8 = load ptr, ptr %4, align 8
  %9 = load ptr, ptr %5, align 8
  %10 = load i32, ptr %6, align 4
  %11 = load i32, ptr @hf_afp_vol_attribute, align 4
  %12 = load i32, ptr @ett_afp_vol_attribute, align 4
  %13 = call ptr @proto_tree_add_bitmask(ptr noundef %8, ptr noundef %9, i32 noundef %10, i32 noundef %11, i32 noundef %12, ptr noundef @decode_vol_attribute.bitmaps, i32 noundef 0)
  %14 = load ptr, ptr %5, align 8
  %15 = load i32, ptr %6, align 4
  %16 = call zeroext i16 @tvb_get_ntohs(ptr noundef %14, i32 noundef %15)
  store i16 %16, ptr %7, align 2
  %17 = load i16, ptr %7, align 2
  call void @llvm.lifetime.end.p0(i64 2, ptr %7) #8
  ret i16 %17
}

; Function Attrs: null_pointer_is_valid sspstrong uwtable
define internal i32 @parse_vol_bitmap(ptr noundef %0, ptr noundef %1, i32 noundef %2, i16 noundef zeroext %3) #1 {
  %5 = alloca ptr, align 8
  %6 = alloca ptr, align 8
  %7 = alloca i32, align 4
  %8 = alloca i16, align 2
  %9 = alloca i16, align 2
  %10 = alloca i8, align 1
  store ptr %0, ptr %5, align 8
  store ptr %1, ptr %6, align 8
  store i32 %2, ptr %7, align 4
  store i16 %3, ptr %8, align 2
  call void @llvm.lifetime.start.p0(i64 2, ptr %9) #8
  store i16 0, ptr %9, align 2
  %11 = load i16, ptr %8, align 2
  %12 = zext i16 %11 to i32
  %13 = and i32 %12, 1
  %14 = icmp ne i32 %13, 0
  br i1 %14, label %15, label %22

15:                                               ; preds = %4
  %16 = load ptr, ptr %5, align 8
  %17 = load ptr, ptr %6, align 8
  %18 = load i32, ptr %7, align 4
  %19 = call zeroext i16 @decode_vol_attribute(ptr noundef %16, ptr noundef %17, i32 noundef %18)
  %20 = load i32, ptr %7, align 4
  %21 = add i32 %20, 2
  store i32 %21, ptr %7, align 4
  br label %22

22:                                               ; preds = %15, %4
  %23 = load i16, ptr %8, align 2
  %24 = zext i16 %23 to i32
  %25 = and i32 %24, 2
  %26 = icmp ne i32 %25, 0
  br i1 %26, label %27, label %35

27:                                               ; preds = %22
  %28 = load ptr, ptr %5, align 8
  %29 = load i32, ptr @hf_afp_vol_signature, align 4
  %30 = load ptr, ptr %6, align 8
  %31 = load i32, ptr %7, align 4
  %32 = call ptr @proto_tree_add_item(ptr noundef %28, i32 noundef %29, ptr noundef %30, i32 noundef %31, i32 noundef 2, i32 noundef 0)
  %33 = load i32, ptr %7, align 4
  %34 = add i32 %33, 2
  store i32 %34, ptr %7, align 4
  br label %35

35:                                               ; preds = %27, %22
  %36 = load i16, ptr %8, align 2
  %37 = zext i16 %36 to i32
  %38 = and i32 %37, 4
  %39 = icmp ne i32 %38, 0
  br i1 %39, label %40, label %47

40:                                               ; preds = %35
  %41 = load ptr, ptr %5, align 8
  %42 = load i32, ptr @hf_afp_vol_creation_date, align 4
  %43 = load ptr, ptr %6, align 8
  %44 = load i32, ptr %7, align 4
  call void @print_date(ptr noundef %41, i32 noundef %42, ptr noundef %43, i32 noundef %44)
  %45 = load i32, ptr %7, align 4
  %46 = add i32 %45, 4
  store i32 %46, ptr %7, align 4
  br label %47

47:                                               ; preds = %40, %35
  %48 = load i16, ptr %8, align 2
  %49 = zext i16 %48 to i32
  %50 = and i32 %49, 8
  %51 = icmp ne i32 %50, 0
  br i1 %51, label %52, label %59

52:                                               ; preds = %47
  %53 = load ptr, ptr %5, align 8
  %54 = load i32, ptr @hf_afp_vol_modification_date, align 4
  %55 = load ptr, ptr %6, align 8
  %56 = load i32, ptr %7, align 4
  call void @print_date(ptr noundef %53, i32 noundef %54, ptr noundef %55, i32 noundef %56)
  %57 = load i32, ptr %7, align 4
  %58 = add i32 %57, 4
  store i32 %58, ptr %7, align 4
  br label %59

59:                                               ; preds = %52, %47
  %60 = load i16, ptr %8, align 2
  %61 = zext i16 %60 to i32
  %62 = and i32 %61, 16
  %63 = icmp ne i32 %62, 0
  br i1 %63, label %64, label %71

64:                                               ; preds = %59
  %65 = load ptr, ptr %5, align 8
  %66 = load i32, ptr @hf_afp_vol_backup_date, align 4
  %67 = load ptr, ptr %6, align 8
  %68 = load i32, ptr %7, align 4
  call void @print_date(ptr noundef %65, i32 noundef %66, ptr noundef %67, i32 noundef %68)
  %69 = load i32, ptr %7, align 4
  %70 = add i32 %69, 4
  store i32 %70, ptr %7, align 4
  br label %71

71:                                               ; preds = %64, %59
  %72 = load i16, ptr %8, align 2
  %73 = zext i16 %72 to i32
  %74 = and i32 %73, 32
  %75 = icmp ne i32 %74, 0
  br i1 %75, label %76, label %84

76:                                               ; preds = %71
  %77 = load ptr, ptr %5, align 8
  %78 = load i32, ptr @hf_afp_vol_id, align 4
  %79 = load ptr, ptr %6, align 8
  %80 = load i32, ptr %7, align 4
  %81 = call ptr @proto_tree_add_item(ptr noundef %77, i32 noundef %78, ptr noundef %79, i32 noundef %80, i32 noundef 2, i32 noundef 0)
  %82 = load i32, ptr %7, align 4
  %83 = add i32 %82, 2
  store i32 %83, ptr %7, align 4
  br label %84

84:                                               ; preds = %76, %71
  %85 = load i16, ptr %8, align 2
  %86 = zext i16 %85 to i32
  %87 = and i32 %86, 64
  %88 = icmp ne i32 %87, 0
  br i1 %88, label %89, label %97

89:                                               ; preds = %84
  %90 = load ptr, ptr %5, align 8
  %91 = load i32, ptr @hf_afp_vol_bytes_free, align 4
  %92 = load ptr, ptr %6, align 8
  %93 = load i32, ptr %7, align 4
  %94 = call ptr @proto_tree_add_item(ptr noundef %90, i32 noundef %91, ptr noundef %92, i32 noundef %93, i32 noundef 4, i32 noundef 0)
  %95 = load i32, ptr %7, align 4
  %96 = add i32 %95, 4
  store i32 %96, ptr %7, align 4
  br label %97

97:                                               ; preds = %89, %84
  %98 = load i16, ptr %8, align 2
  %99 = zext i16 %98 to i32
  %100 = and i32 %99, 128
  %101 = icmp ne i32 %100, 0
  br i1 %101, label %102, label %110

102:                                              ; preds = %97
  %103 = load ptr, ptr %5, align 8
  %104 = load i32, ptr @hf_afp_vol_bytes_total, align 4
  %105 = load ptr, ptr %6, align 8
  %106 = load i32, ptr %7, align 4
  %107 = call ptr @proto_tree_add_item(ptr noundef %103, i32 noundef %104, ptr noundef %105, i32 noundef %106, i32 noundef 4, i32 noundef 0)
  %108 = load i32, ptr %7, align 4
  %109 = add i32 %108, 4
  store i32 %109, ptr %7, align 4
  br label %110

110:                                              ; preds = %102, %97
  %111 = load i16, ptr %8, align 2
  %112 = zext i16 %111 to i32
  %113 = and i32 %112, 256
  %114 = icmp ne i32 %113, 0
  br i1 %114, label %115, label %126

115:                                              ; preds = %110
  %116 = load ptr, ptr %6, align 8
  %117 = load i32, ptr %7, align 4
  %118 = call zeroext i16 @tvb_get_ntohs(ptr noundef %116, i32 noundef %117)
  store i16 %118, ptr %9, align 2
  %119 = load ptr, ptr %5, align 8
  %120 = load i32, ptr @hf_afp_vol_name_offset, align 4
  %121 = load ptr, ptr %6, align 8
  %122 = load i32, ptr %7, align 4
  %123 = call ptr @proto_tree_add_item(ptr noundef %119, i32 noundef %120, ptr noundef %121, i32 noundef %122, i32 noundef 2, i32 noundef 0)
  %124 = load i32, ptr %7, align 4
  %125 = add i32 %124, 2
  store i32 %125, ptr %7, align 4
  br label %126

126:                                              ; preds = %115, %110
  %127 = load i16, ptr %8, align 2
  %128 = zext i16 %127 to i32
  %129 = and i32 %128, 512
  %130 = icmp ne i32 %129, 0
  br i1 %130, label %131, label %139

131:                                              ; preds = %126
  %132 = load ptr, ptr %5, align 8
  %133 = load i32, ptr @hf_afp_vol_ex_bytes_free, align 4
  %134 = load ptr, ptr %6, align 8
  %135 = load i32, ptr %7, align 4
  %136 = call ptr @proto_tree_add_item(ptr noundef %132, i32 noundef %133, ptr noundef %134, i32 noundef %135, i32 noundef 8, i32 noundef 0)
  %137 = load i32, ptr %7, align 4
  %138 = add i32 %137, 8
  store i32 %138, ptr %7, align 4
  br label %139

139:                                              ; preds = %131, %126
  %140 = load i16, ptr %8, align 2
  %141 = zext i16 %140 to i32
  %142 = and i32 %141, 1024
  %143 = icmp ne i32 %142, 0
  br i1 %143, label %144, label %152

144:                                              ; preds = %139
  %145 = load ptr, ptr %5, align 8
  %146 = load i32, ptr @hf_afp_vol_ex_bytes_total, align 4
  %147 = load ptr, ptr %6, align 8
  %148 = load i32, ptr %7, align 4
  %149 = call ptr @proto_tree_add_item(ptr noundef %145, i32 noundef %146, ptr noundef %147, i32 noundef %148, i32 noundef 8, i32 noundef 0)
  %150 = load i32, ptr %7, align 4
  %151 = add i32 %150, 8
  store i32 %151, ptr %7, align 4
  br label %152

152:                                              ; preds = %144, %139
  %153 = load i16, ptr %8, align 2
  %154 = zext i16 %153 to i32
  %155 = and i32 %154, 2048
  %156 = icmp ne i32 %155, 0
  br i1 %156, label %157, label %165

157:                                              ; preds = %152
  %158 = load ptr, ptr %5, align 8
  %159 = load i32, ptr @hf_afp_vol_block_size, align 4
  %160 = load ptr, ptr %6, align 8
  %161 = load i32, ptr %7, align 4
  %162 = call ptr @proto_tree_add_item(ptr noundef %158, i32 noundef %159, ptr noundef %160, i32 noundef %161, i32 noundef 4, i32 noundef 0)
  %163 = load i32, ptr %7, align 4
  %164 = add i32 %163, 4
  store i32 %164, ptr %7, align 4
  br label %165

165:                                              ; preds = %157, %152
  %166 = load i16, ptr %9, align 2
  %167 = icmp ne i16 %166, 0
  br i1 %167, label %168, label %182

168:                                              ; preds = %165
  call void @llvm.lifetime.start.p0(i64 1, ptr %10) #8
  %169 = load ptr, ptr %6, align 8
  %170 = load i32, ptr %7, align 4
  %171 = call zeroext i8 @tvb_get_uint8(ptr noundef %169, i32 noundef %170)
  store i8 %171, ptr %10, align 1
  %172 = load ptr, ptr %5, align 8
  %173 = load i32, ptr @hf_afp_vol_name, align 4
  %174 = load ptr, ptr %6, align 8
  %175 = load i32, ptr %7, align 4
  %176 = call ptr @proto_tree_add_item(ptr noundef %172, i32 noundef %173, ptr noundef %174, i32 noundef %175, i32 noundef 1, i32 noundef 2)
  %177 = load i8, ptr %10, align 1
  %178 = zext i8 %177 to i32
  %179 = add i32 %178, 1
  %180 = load i32, ptr %7, align 4
  %181 = add i32 %180, %179
  store i32 %181, ptr %7, align 4
  call void @llvm.lifetime.end.p0(i64 1, ptr %10) #8
  br label %182

182:                                              ; preds = %168, %165
  %183 = load i32, ptr %7, align 4
  call void @llvm.lifetime.end.p0(i64 2, ptr %9) #8
  ret i32 %183
}