; Function Attrs: null_pointer_is_valid sspstrong uwtable
define internal fastcc range(i32 2, 311) i32 @parse_vol_bitmap(ptr noundef %0, ptr noundef %1, i32 noundef range(i32 2, 7) %2, i16 noundef zeroext %3) unnamed_addr #1 {
  %5 = alloca %struct.nstime_t, align 8
  %6 = alloca %struct.nstime_t, align 8
  %7 = alloca %struct.nstime_t, align 8
  %8 = zext i16 %3 to i32
  %9 = and i32 %8, 1
  %.not = icmp eq i32 %9, 0
  br i1 %.not, label %16, label %10

10:                                               ; preds = %4
  %11 = load i32, ptr @hf_afp_vol_attribute, align 4
  %12 = load i32, ptr @ett_afp_vol_attribute, align 4
  %13 = tail call ptr @proto_tree_add_bitmask(ptr noundef %0, ptr noundef %1, i32 noundef range(i32 2, 7) %2, i32 noundef %11, i32 noundef %12, ptr noundef nonnull @decode_vol_attribute.bitmaps, i32 noundef 0)
  %14 = tail call zeroext i16 @tvb_get_ntohs(ptr noundef %1, i32 noundef range(i32 2, 7) %2)
  %15 = add nuw nsw i32 %2, 2
  br label %16

16:                                               ; preds = %10, %4
  %.0 = phi i32 [ %15, %10 ], [ %2, %4 ]
  %17 = and i32 %8, 2
  %.not71 = icmp eq i32 %17, 0
  br i1 %.not71, label %22, label %18

18:                                               ; preds = %16
  %19 = load i32, ptr @hf_afp_vol_signature, align 4
  %20 = tail call ptr @proto_tree_add_item(ptr noundef %0, i32 noundef %19, ptr noundef %1, i32 noundef %.0, i32 noundef 2, i32 noundef 0)
  %21 = add nuw nsw i32 %.0, 2
  br label %22

22:                                               ; preds = %18, %16
  %.1 = phi i32 [ %21, %18 ], [ %.0, %16 ]
  %23 = and i32 %8, 4
  %.not72 = icmp eq i32 %23, 0
  br i1 %.not72, label %32, label %24

24:                                               ; preds = %22
  %25 = load i32, ptr @hf_afp_vol_creation_date, align 4
  %26 = tail call i32 @tvb_get_ntohl(ptr noundef %1, i32 noundef %.1)
  %27 = zext i32 %26 to i64
  call void @llvm.lifetime.start.p0(i64 16, ptr nonnull %7) #8
  %28 = add nuw nsw i64 %27, 946684800
  store i64 %28, ptr %7, align 8
  %29 = getelementptr inbounds nuw i8, ptr %7, i64 8
  store i32 0, ptr %29, align 8
  %30 = call ptr @proto_tree_add_time(ptr noundef %0, i32 noundef %25, ptr noundef %1, i32 noundef %.1, i32 noundef 4, ptr noundef nonnull %7)
  call void @llvm.lifetime.end.p0(i64 16, ptr nonnull %7) #8
  %31 = add nuw nsw i32 %.1, 4
  br label %32

32:                                               ; preds = %24, %22
  %.2 = phi i32 [ %31, %24 ], [ %.1, %22 ]
  %33 = and i32 %8, 8
  %.not73 = icmp eq i32 %33, 0
  br i1 %.not73, label %42, label %34

34:                                               ; preds = %32
  %35 = load i32, ptr @hf_afp_vol_modification_date, align 4
  %36 = call i32 @tvb_get_ntohl(ptr noundef %1, i32 noundef %.2)
  %37 = zext i32 %36 to i64
  call void @llvm.lifetime.start.p0(i64 16, ptr nonnull %6) #8
  %38 = add nuw nsw i64 %37, 946684800
  store i64 %38, ptr %6, align 8
  %39 = getelementptr inbounds nuw i8, ptr %6, i64 8
  store i32 0, ptr %39, align 8
  %40 = call ptr @proto_tree_add_time(ptr noundef %0, i32 noundef %35, ptr noundef %1, i32 noundef %.2, i32 noundef 4, ptr noundef nonnull %6)
  call void @llvm.lifetime.end.p0(i64 16, ptr nonnull %6) #8
  %41 = add nuw nsw i32 %.2, 4
  br label %42

42:                                               ; preds = %34, %32
  %.3 = phi i32 [ %41, %34 ], [ %.2, %32 ]
  %43 = and i32 %8, 16
  %.not74 = icmp eq i32 %43, 0
  br i1 %.not74, label %52, label %44

44:                                               ; preds = %42
  %45 = load i32, ptr @hf_afp_vol_backup_date, align 4
  %46 = call i32 @tvb_get_ntohl(ptr noundef %1, i32 noundef %.3)
  %47 = zext i32 %46 to i64
  call void @llvm.lifetime.start.p0(i64 16, ptr nonnull %5) #8
  %48 = add nuw nsw i64 %47, 946684800
  store i64 %48, ptr %5, align 8
  %49 = getelementptr inbounds nuw i8, ptr %5, i64 8
  store i32 0, ptr %49, align 8
  %50 = call ptr @proto_tree_add_time(ptr noundef %0, i32 noundef %45, ptr noundef %1, i32 noundef %.3, i32 noundef 4, ptr noundef nonnull %5)
  call void @llvm.lifetime.end.p0(i64 16, ptr nonnull %5) #8
  %51 = add nuw nsw i32 %.3, 4
  br label %52

52:                                               ; preds = %44, %42
  %.4 = phi i32 [ %51, %44 ], [ %.3, %42 ]
  %53 = and i32 %8, 32
  %.not75 = icmp eq i32 %53, 0
  br i1 %.not75, label %58, label %54

54:                                               ; preds = %52
  %55 = load i32, ptr @hf_afp_vol_id, align 4
  %56 = call ptr @proto_tree_add_item(ptr noundef %0, i32 noundef %55, ptr noundef %1, i32 noundef %.4, i32 noundef 2, i32 noundef 0)
  %57 = add nuw nsw i32 %.4, 2
  br label %58

58:                                               ; preds = %54, %52
  %.5 = phi i32 [ %57, %54 ], [ %.4, %52 ]
  %59 = and i32 %8, 64
  %.not76 = icmp eq i32 %59, 0
  br i1 %.not76, label %64, label %60

60:                                               ; preds = %58
  %61 = load i32, ptr @hf_afp_vol_bytes_free, align 4
  %62 = call ptr @proto_tree_add_item(ptr noundef %0, i32 noundef %61, ptr noundef %1, i32 noundef %.5, i32 noundef 4, i32 noundef 0)
  %63 = add nuw nsw i32 %.5, 4
  br label %64

64:                                               ; preds = %60, %58
  %.6 = phi i32 [ %63, %60 ], [ %.5, %58 ]
  %65 = and i32 %8, 128
  %.not77 = icmp eq i32 %65, 0
  br i1 %.not77, label %70, label %66

66:                                               ; preds = %64
  %67 = load i32, ptr @hf_afp_vol_bytes_total, align 4
  %68 = call ptr @proto_tree_add_item(ptr noundef %0, i32 noundef %67, ptr noundef %1, i32 noundef %.6, i32 noundef 4, i32 noundef 0)
  %69 = add nuw nsw i32 %.6, 4
  br label %70

70:                                               ; preds = %66, %64
  %.7 = phi i32 [ %69, %66 ], [ %.6, %64 ]
  %71 = and i32 %8, 256
  %.not78 = icmp eq i32 %71, 0
  br i1 %.not78, label %78, label %72

72:                                               ; preds = %70
  %73 = call zeroext i16 @tvb_get_ntohs(ptr noundef %1, i32 noundef %.7)
  %74 = load i32, ptr @hf_afp_vol_name_offset, align 4
  %75 = call ptr @proto_tree_add_item(ptr noundef %0, i32 noundef %74, ptr noundef %1, i32 noundef %.7, i32 noundef 2, i32 noundef 0)
  %76 = add nuw nsw i32 %.7, 2
  %77 = icmp eq i16 %73, 0
  br label %78

78:                                               ; preds = %72, %70
  %.070 = phi i1 [ %77, %72 ], [ true, %70 ]
  %.8 = phi i32 [ %76, %72 ], [ %.7, %70 ]
  %79 = and i32 %8, 512
  %.not79 = icmp eq i32 %79, 0
  br i1 %.not79, label %84, label %80

80:                                               ; preds = %78
  %81 = load i32, ptr @hf_afp_vol_ex_bytes_free, align 4
  %82 = call ptr @proto_tree_add_item(ptr noundef %0, i32 noundef %81, ptr noundef %1, i32 noundef %.8, i32 noundef 8, i32 noundef 0)
  %83 = add nuw nsw i32 %.8, 8
  br label %84

84:                                               ; preds = %80, %78
  %.9 = phi i32 [ %83, %80 ], [ %.8, %78 ]
  %85 = and i32 %8, 1024
  %.not80 = icmp eq i32 %85, 0
  br i1 %.not80, label %90, label %86

86:                                               ; preds = %84
  %87 = load i32, ptr @hf_afp_vol_ex_bytes_total, align 4
  %88 = call ptr @proto_tree_add_item(ptr noundef %0, i32 noundef %87, ptr noundef %1, i32 noundef %.9, i32 noundef 8, i32 noundef 0)
  %89 = add nuw nsw i32 %.9, 8
  br label %90

90:                                               ; preds = %86, %84
  %.10 = phi i32 [ %89, %86 ], [ %.9, %84 ]
  %91 = and i32 %8, 2048
  %.not81 = icmp eq i32 %91, 0
  br i1 %.not81, label %96, label %92

92:                                               ; preds = %90
  %93 = load i32, ptr @hf_afp_vol_block_size, align 4
  %94 = call ptr @proto_tree_add_item(ptr noundef %0, i32 noundef %93, ptr noundef %1, i32 noundef %.10, i32 noundef 4, i32 noundef 0)
  %95 = add nuw nsw i32 %.10, 4
  br label %96

96:                                               ; preds = %92, %90
  %.11 = phi i32 [ %95, %92 ], [ %.10, %90 ]
  br i1 %.070, label %104, label %97

97:                                               ; preds = %96
  %98 = call zeroext i8 @tvb_get_uint8(ptr noundef %1, i32 noundef %.11)
  %99 = load i32, ptr @hf_afp_vol_name, align 4
  %100 = call ptr @proto_tree_add_item(ptr noundef %0, i32 noundef %99, ptr noundef %1, i32 noundef %.11, i32 noundef 1, i32 noundef 2)
  %101 = zext i8 %98 to i32
  %102 = add nuw nsw i32 %.11, 1
  %103 = add nuw nsw i32 %102, %101
  br label %104

104:                                              ; preds = %97, %96
  %.12 = phi i32 [ %103, %97 ], [ %.11, %96 ]
  ret i32 %.12
}